target datalayout = "e-m:e-p270:32:32-p271:32:32-p272:64:64-i64:64-i128:128-f80:128-n8:16:32:64-S128"
target triple = "x86_64-pc-linux-gnu"

%struct.lwCanvas = type { i32, i32, ptr }

; Function Attrs: nounwind uwtable
define dso_local i32 @lwGetPixel(ptr noundef %0, i32 noundef %1, i32 noundef %2) #0 {
  %4 = alloca i32, align 4
  %5 = alloca ptr, align 8
  %6 = alloca i32, align 4
  %7 = alloca i32, align 4
  store ptr %0, ptr %5, align 8, !tbaa !40
  store i32 %1, ptr %6, align 4, !tbaa !15
  store i32 %2, ptr %7, align 4, !tbaa !15
  %8 = load i32, ptr %6, align 4, !tbaa !15
  %9 = icmp slt i32 %8, 0
  br i1 %9, label %25, label %10

10:                                               ; preds = %3
  %11 = load i32, ptr %6, align 4, !tbaa !15
  %12 = load ptr, ptr %5, align 8, !tbaa !40
  %13 = getelementptr inbounds nuw %struct.lwCanvas, ptr %12, i32 0, i32 0
  %14 = load i32, ptr %13, align 8, !tbaa !42
  %15 = icmp sge i32 %11, %14
  br i1 %15, label %25, label %16

16:                                               ; preds = %10
  %17 = load i32, ptr %7, align 4, !tbaa !15
  %18 = icmp slt i32 %17, 0
  br i1 %18, label %25, label %19

19:                                               ; preds = %16
  %20 = load i32, ptr %7, align 4, !tbaa !15
  %21 = load ptr, ptr %5, align 8, !tbaa !40
  %22 = getelementptr inbounds nuw %struct.lwCanvas, ptr %21, i32 0, i32 1
  %23 = load i32, ptr %22, align 4, !tbaa !44
  %24 = icmp sge i32 %20, %23
  br i1 %24, label %25, label %26

25:                                               ; preds = %19, %16, %10, %3
  store i32 0, ptr %4, align 4
  br label %41

26:                                               ; preds = %19
  %27 = load ptr, ptr %5, align 8, !tbaa !40
  %28 = getelementptr inbounds nuw %struct.lwCanvas, ptr %27, i32 0, i32 2
  %29 = load ptr, ptr %28, align 8, !tbaa !45
  %30 = load i32, ptr %6, align 4, !tbaa !15
  %31 = load i32, ptr %7, align 4, !tbaa !15
  %32 = load ptr, ptr %5, align 8, !tbaa !40
  %33 = getelementptr inbounds nuw %struct.lwCanvas, ptr %32, i32 0, i32 0
  %34 = load i32, ptr %33, align 8, !tbaa !42
  %35 = mul nsw i32 %31, %34
  %36 = add nsw i32 %30, %35
  %37 = sext i32 %36 to i64
  %38 = getelementptr inbounds i8, ptr %29, i64 %37
  %39 = load i8, ptr %38, align 1, !tbaa !12
  %40 = sext i8 %39 to i32
  store i32 %40, ptr %4, align 4
  br label %41

41:                                               ; preds = %26, %25
  %42 = load i32, ptr %4, align 4
  ret i32 %42
}