; Function Attrs: mustprogress nofree norecurse nosync nounwind willreturn memory(read, inaccessiblemem: none) uwtable
define dso_local range(i32 -128, 128) i32 @lwGetPixel(ptr noundef readonly captures(none) %0, i32 noundef %1, i32 noundef %2) local_unnamed_addr #8 {
  %4 = icmp slt i32 %1, 0
  br i1 %4, label %21, label %5

5:                                                ; preds = %3
  %6 = load i32, ptr %0, align 8, !tbaa !37
  %7 = icmp sge i32 %1, %6
  %8 = icmp slt i32 %2, 0
  %or.cond = or i1 %8, %7
  br i1 %or.cond, label %21, label %9

9:                                                ; preds = %5
  %10 = getelementptr inbounds nuw i8, ptr %0, i64 4
  %11 = load i32, ptr %10, align 4, !tbaa !39
  %.not = icmp slt i32 %2, %11
  br i1 %.not, label %12, label %21

12:                                               ; preds = %9
  %13 = getelementptr inbounds nuw i8, ptr %0, i64 8
  %14 = load ptr, ptr %13, align 8, !tbaa !40
  %15 = mul nsw i32 %6, %2
  %16 = add nuw nsw i32 %15, %1
  %17 = zext nneg i32 %16 to i64
  %18 = getelementptr inbounds nuw i8, ptr %14, i64 %17
  %19 = load i8, ptr %18, align 1, !tbaa !5
  %20 = sext i8 %19 to i32
  br label %21

21:                                               ; preds = %3, %5, %9, %12
  %.0 = phi i32 [ %20, %12 ], [ 0, %9 ], [ 0, %5 ], [ 0, %3 ]
  ret i32 %.0
}